target datalayout = "e-m:e-p270:32:32-p271:32:32-p272:64:64-i64:64-i128:128-f80:128-n8:16:32:64-S128"
target triple = "x86_64-pc-linux-gnu"

%"struct.dpx::IndustryHeader" = type { [2 x i8], [2 x i8], [2 x i8], [6 x i8], [4 x i8], [32 x i8], i32, i32, i32, float, float, [32 x i8], [100 x i8], [56 x i8], i32, i32, i8, i8, i8, i8, float, float, float, float, float, float, float, float, float, float, [76 x i8] }

; Function Attrs: mustprogress nounwind uwtable
define hidden void @_ZN3dpx14IndustryHeader15SetFileEdgeCodeEPKc(ptr noundef nonnull align 4 dereferenceable(384) %0, ptr noundef %1) #6 align 2 {
  %3 = alloca ptr, align 8
  %4 = alloca ptr, align 8
  store ptr %0, ptr %3, align 8, !tbaa !21
  store ptr %1, ptr %4, align 8, !tbaa !45
  %5 = load ptr, ptr %3, align 8
  %6 = load ptr, ptr %4, align 8, !tbaa !45
  %7 = getelementptr inbounds i8, ptr %6, i64 0
  %8 = load i8, ptr %7, align 1, !tbaa !8
  %9 = getelementptr inbounds nuw %"struct.dpx::IndustryHeader", ptr %5, i32 0, i32 0
  %10 = getelementptr inbounds [2 x i8], ptr %9, i64 0, i64 0
  store i8 %8, ptr %10, align 4, !tbaa !8
  %11 = load ptr, ptr %4, align 8, !tbaa !45
  %12 = getelementptr inbounds i8, ptr %11, i64 1
  %13 = load i8, ptr %12, align 1, !tbaa !8
  %14 = getelementptr inbounds nuw %"struct.dpx::IndustryHeader", ptr %5, i32 0, i32 0
  %15 = getelementptr inbounds [2 x i8], ptr %14, i64 0, i64 1
  store i8 %13, ptr %15, align 1, !tbaa !8
  %16 = load ptr, ptr %4, align 8, !tbaa !45
  %17 = getelementptr inbounds i8, ptr %16, i64 2
  %18 = load i8, ptr %17, align 1, !tbaa !8
  %19 = getelementptr inbounds nuw %"struct.dpx::IndustryHeader", ptr %5, i32 0, i32 1
  %20 = getelementptr inbounds [2 x i8], ptr %19, i64 0, i64 0
  store i8 %18, ptr %20, align 2, !tbaa !8
  %21 = load ptr, ptr %4, align 8, !tbaa !45
  %22 = getelementptr inbounds i8, ptr %21, i64 3
  %23 = load i8, ptr %22, align 1, !tbaa !8
  %24 = getelementptr inbounds nuw %"struct.dpx::IndustryHeader", ptr %5, i32 0, i32 1
  %25 = getelementptr inbounds [2 x i8], ptr %24, i64 0, i64 1
  store i8 %23, ptr %25, align 1, !tbaa !8
  %26 = load ptr, ptr %4, align 8, !tbaa !45
  %27 = getelementptr inbounds i8, ptr %26, i64 4
  %28 = load i8, ptr %27, align 1, !tbaa !8
  %29 = getelementptr inbounds nuw %"struct.dpx::IndustryHeader", ptr %5, i32 0, i32 2
  %30 = getelementptr inbounds [2 x i8], ptr %29, i64 0, i64 0
  store i8 %28, ptr %30, align 4, !tbaa !8
  %31 = load ptr, ptr %4, align 8, !tbaa !45
  %32 = getelementptr inbounds i8, ptr %31, i64 5
  %33 = load i8, ptr %32, align 1, !tbaa !8
  %34 = getelementptr inbounds nuw %"struct.dpx::IndustryHeader", ptr %5, i32 0, i32 2
  %35 = getelementptr inbounds [2 x i8], ptr %34, i64 0, i64 1
  store i8 %33, ptr %35, align 1, !tbaa !8
  %36 = load ptr, ptr %4, align 8, !tbaa !45
  %37 = getelementptr inbounds i8, ptr %36, i64 6
  %38 = load i8, ptr %37, align 1, !tbaa !8
  %39 = getelementptr inbounds nuw %"struct.dpx::IndustryHeader", ptr %5, i32 0, i32 3
  %40 = getelementptr inbounds [6 x i8], ptr %39, i64 0, i64 0
  store i8 %38, ptr %40, align 2, !tbaa !8
  %41 = load ptr, ptr %4, align 8, !tbaa !45
  %42 = getelementptr inbounds i8, ptr %41, i64 7
  %43 = load i8, ptr %42, align 1, !tbaa !8
  %44 = getelementptr inbounds nuw %"struct.dpx::IndustryHeader", ptr %5, i32 0, i32 3
  %45 = getelementptr inbounds [6 x i8], ptr %44, i64 0, i64 1
  store i8 %43, ptr %45, align 1, !tbaa !8
  %46 = load ptr, ptr %4, align 8, !tbaa !45
  %47 = getelementptr inbounds i8, ptr %46, i64 8
  %48 = load i8, ptr %47, align 1, !tbaa !8
  %49 = getelementptr inbounds nuw %"struct.dpx::IndustryHeader", ptr %5, i32 0, i32 3
  %50 = getelementptr inbounds [6 x i8], ptr %49, i64 0, i64 2
  store i8 %48, ptr %50, align 2, !tbaa !8
  %51 = load ptr, ptr %4, align 8, !tbaa !45
  %52 = getelementptr inbounds i8, ptr %51, i64 9
  %53 = load i8, ptr %52, align 1, !tbaa !8
  %54 = getelementptr inbounds nuw %"struct.dpx::IndustryHeader", ptr %5, i32 0, i32 3
  %55 = getelementptr inbounds [6 x i8], ptr %54, i64 0, i64 3
  store i8 %53, ptr %55, align 1, !tbaa !8
  %56 = load ptr, ptr %4, align 8, !tbaa !45
  %57 = getelementptr inbounds i8, ptr %56, i64 10
  %58 = load i8, ptr %57, align 1, !tbaa !8
  %59 = getelementptr inbounds nuw %"struct.dpx::IndustryHeader", ptr %5, i32 0, i32 3
  %60 = getelementptr inbounds [6 x i8], ptr %59, i64 0, i64 4
  store i8 %58, ptr %60, align 2, !tbaa !8
  %61 = load ptr, ptr %4, align 8, !tbaa !45
  %62 = getelementptr inbounds i8, ptr %61, i64 11
  %63 = load i8, ptr %62, align 1, !tbaa !8
  %64 = getelementptr inbounds nuw %"struct.dpx::IndustryHeader", ptr %5, i32 0, i32 3
  %65 = getelementptr inbounds [6 x i8], ptr %64, i64 0, i64 5
  store i8 %63, ptr %65, align 1, !tbaa !8
  %66 = load ptr, ptr %4, align 8, !tbaa !45
  %67 = getelementptr inbounds i8, ptr %66, i64 12
  %68 = load i8, ptr %67, align 1, !tbaa !8
  %69 = getelementptr inbounds nuw %"struct.dpx::IndustryHeader", ptr %5, i32 0, i32 4
  %70 = getelementptr inbounds [4 x i8], ptr %69, i64 0, i64 0
  store i8 %68, ptr %70, align 4, !tbaa !8
  %71 = load ptr, ptr %4, align 8, !tbaa !45
  %72 = getelementptr inbounds i8, ptr %71, i64 13
  %73 = load i8, ptr %72, align 1, !tbaa !8
  %74 = getelementptr inbounds nuw %"struct.dpx::IndustryHeader", ptr %5, i32 0, i32 4
  %75 = getelementptr inbounds [4 x i8], ptr %74, i64 0, i64 1
  store i8 %73, ptr %75, align 1, !tbaa !8
  %76 = load ptr, ptr %4, align 8, !tbaa !45
  %77 = getelementptr inbounds i8, ptr %76, i64 14
  %78 = load i8, ptr %77, align 1, !tbaa !8
  %79 = getelementptr inbounds nuw %"struct.dpx::IndustryHeader", ptr %5, i32 0, i32 4
  %80 = getelementptr inbounds [4 x i8], ptr %79, i64 0, i64 2
  store i8 %78, ptr %80, align 2, !tbaa !8
  %81 = load ptr, ptr %4, align 8, !tbaa !45
  %82 = getelementptr inbounds i8, ptr %81, i64 15
  %83 = load i8, ptr %82, align 1, !tbaa !8
  %84 = getelementptr inbounds nuw %"struct.dpx::IndustryHeader", ptr %5, i32 0, i32 4
  %85 = getelementptr inbounds [4 x i8], ptr %84, i64 0, i64 3
  store i8 %83, ptr %85, align 1, !tbaa !8
  ret void
}